target datalayout = "e-m:e-p270:32:32-p271:32:32-p272:64:64-i64:64-i128:128-f80:128-n8:16:32:64-S128"
target triple = "x86_64-pc-linux-gnu"

%struct.Curl_cfilter = type { ptr, ptr, ptr, ptr, i32, i8 }
%struct.Curl_cftype = type { ptr, i32, i32, ptr, ptr, ptr, ptr, ptr, ptr, ptr, ptr, ptr, ptr, ptr, ptr, ptr }

; Function Attrs: nounwind uwtable
define dso_local zeroext i1 @Curl_cf_def_conn_is_alive(ptr noundef %0, ptr noundef %1, ptr noundef %2) #0 {
  %4 = alloca ptr, align 8
  %5 = alloca ptr, align 8
  %6 = alloca ptr, align 8
  store ptr %0, ptr %4, align 8, !tbaa !4
  store ptr %1, ptr %5, align 8, !tbaa !9
  store ptr %2, ptr %6, align 8, !tbaa !11
  %7 = load ptr, ptr %4, align 8, !tbaa !4
  %8 = getelementptr inbounds nuw %struct.Curl_cfilter, ptr %7, i32 0, i32 1
  %9 = load ptr, ptr %8, align 8, !tbaa !19
  %10 = icmp ne ptr %9, null
  br i1 %10, label %11, label %26

11:                                               ; preds = %3
  %12 = load ptr, ptr %4, align 8, !tbaa !4
  %13 = getelementptr inbounds nuw %struct.Curl_cfilter, ptr %12, i32 0, i32 1
  %14 = load ptr, ptr %13, align 8, !tbaa !19
  %15 = getelementptr inbounds nuw %struct.Curl_cfilter, ptr %14, i32 0, i32 0
  %16 = load ptr, ptr %15, align 8, !tbaa !24
  %17 = getelementptr inbounds nuw %struct.Curl_cftype, ptr %16, i32 0, i32 13
  %18 = load ptr, ptr %17, align 8, !tbaa !63
  %19 = load ptr, ptr %4, align 8, !tbaa !4
  %20 = getelementptr inbounds nuw %struct.Curl_cfilter, ptr %19, i32 0, i32 1
  %21 = load ptr, ptr %20, align 8, !tbaa !19
  %22 = load ptr, ptr %5, align 8, !tbaa !9
  %23 = load ptr, ptr %6, align 8, !tbaa !11
  %24 = call zeroext i1 %18(ptr noundef %21, ptr noundef %22, ptr noundef %23)
  %25 = zext i1 %24 to i32
  br label %27

26:                                               ; preds = %3
  br label %27

27:                                               ; preds = %26, %11
  %28 = phi i32 [ %25, %11 ], [ 0, %26 ]
  %29 = icmp ne i32 %28, 0
  ret i1 %29
}