; Function Attrs: nounwind uwtable
define dso_local zeroext i1 @Curl_cf_def_conn_is_alive(ptr noundef readonly captures(none) %0, ptr noundef %1, ptr noundef %2) local_unnamed_addr #1 {
  %4 = getelementptr inbounds nuw i8, ptr %0, i64 8
  %5 = load ptr, ptr %4, align 8, !tbaa !8
  %.not = icmp eq ptr %5, null
  br i1 %.not, label %11, label %6

6:                                                ; preds = %3
  %7 = load ptr, ptr %5, align 8, !tbaa !15
  %8 = getelementptr inbounds nuw i8, ptr %7, i64 96
  %9 = load ptr, ptr %8, align 8, !tbaa !48
  %10 = tail call zeroext i1 %9(ptr noundef nonnull %5, ptr noundef %1, ptr noundef %2) #12
  br label %11

11:                                               ; preds = %3, %6
  %12 = phi i1 [ %10, %6 ], [ false, %3 ]
  ret i1 %12
}